target datalayout = "e-m:e-p270:32:32-p271:32:32-p272:64:64-i64:64-i128:128-f80:128-n8:16:32:64-S128"
target triple = "x86_64-pc-linux-gnu"

%"struct.std::_Rb_tree_header" = type { %"struct.std::_Rb_tree_node_base", i64 }
%"struct.std::_Rb_tree_node_base" = type { i32, ptr, ptr, ptr }
%"class.std::set" = type { %"class.std::_Rb_tree" }
%"class.std::_Rb_tree" = type { %"struct.std::_Rb_tree<nix::StorePath, nix::StorePath, std::_Identity<nix::StorePath>, std::less<nix::StorePath>>::_Rb_tree_impl" }
%"struct.std::_Rb_tree<nix::StorePath, nix::StorePath, std::_Identity<nix::StorePath>, std::less<nix::StorePath>>::_Rb_tree_impl" = type { %"struct.std::_Rb_tree_key_compare", %"struct.std::_Rb_tree_header" }
%"struct.std::_Rb_tree_key_compare" = type { %"struct.std::less" }
%"struct.std::less" = type { i8 }
%"class.std::mutex" = type { %"class.std::__mutex_base" }
%"class.std::__mutex_base" = type { %union.pthread_mutex_t }
%union.pthread_mutex_t = type { %struct.__pthread_mutex_s }
%struct.__pthread_mutex_s = type { i32, i32, i32, i32, i32, i16, i16, %struct.__pthread_internal_list }
%struct.__pthread_internal_list = type { ptr, ptr }
%"class.std::_Sp_counted_base" = type { ptr, i32, i32 }
%struct.DrvState = type { i64, i8, %"class.std::set" }
%"class.std::_Sp_counted_ptr_inplace.665" = type { %"class.std::_Sp_counted_base", %"class.std::_Sp_counted_ptr_inplace<nix::Sync<DrvState>, std::allocator<void>, __gnu_cxx::_S_atomic>::_Impl" }
%"class.std::_Sp_counted_ptr_inplace<nix::Sync<DrvState>, std::allocator<void>, __gnu_cxx::_S_atomic>::_Impl" = type { %"struct.__gnu_cxx::__aligned_buffer.666" }
%"struct.__gnu_cxx::__aligned_buffer.666" = type { %"union.std::aligned_storage<104, 8>::type" }
%"union.std::aligned_storage<104, 8>::type" = type { [104 x i8] }
%"class.nix::Sync.669" = type { %"class.std::mutex", %struct.DrvState }

; Function Attrs: mustprogress nounwind uwtable
define linkonce_odr void @_ZNSaISt13_Rb_tree_nodeIN3nix9StorePathEEED2Ev(ptr noundef nonnull align 1 dereferenceable(1) %0) unnamed_addr #2 comdat align 2 {
  %2 = alloca ptr, align 8
  store ptr %0, ptr %2, align 8
  ret void
}

; Function Attrs: mustprogress nounwind uwtable
define linkonce_odr noundef ptr @_ZNKSt8_Rb_treeIN3nix9StorePathES1_St9_IdentityIS1_ESt4lessIS1_ESaIS1_EE9_M_mbeginEv(ptr noundef nonnull align 8 dereferenceable(48) %0) #2 comdat align 2 {
  %2 = alloca ptr, align 8
  store ptr %0, ptr %2, align 8
  %3 = load ptr, ptr %2, align 8
  %4 = getelementptr inbounds %"class.std::_Rb_tree", ptr %3, i32 0, i32 0
  %5 = getelementptr inbounds i8, ptr %4, i64 8
  %6 = getelementptr inbounds %"struct.std::_Rb_tree_header", ptr %5, i32 0, i32 0
  %7 = getelementptr inbounds %"struct.std::_Rb_tree_node_base", ptr %6, i32 0, i32 1
  %8 = load ptr, ptr %7, align 8
  ret ptr %8
}

; Function Attrs: mustprogress nounwind uwtable
define linkonce_odr void @_ZNSt8_Rb_treeIN3nix9StorePathES1_St9_IdentityIS1_ESt4lessIS1_ESaIS1_EE13_Rb_tree_implIS5_Lb1EED2Ev(ptr noundef nonnull align 8 dereferenceable(48) %0) unnamed_addr #2 comdat align 2 {
  %2 = alloca ptr, align 8
  store ptr %0, ptr %2, align 8
  %3 = load ptr, ptr %2, align 8
  call void @_ZNSaISt13_Rb_tree_nodeIN3nix9StorePathEEED2Ev(ptr noundef nonnull align 1 dereferenceable(1) %3) #1
  ret void
}

; Function Attrs: mustprogress nounwind uwtable
define linkonce_odr noundef ptr @_ZNSt8_Rb_treeIN3nix9StorePathES1_St9_IdentityIS1_ESt4lessIS1_ESaIS1_EE8_M_beginEv(ptr noundef nonnull align 8 dereferenceable(48) %0) #2 comdat align 2 {
  %2 = alloca ptr, align 8
  store ptr %0, ptr %2, align 8
  %3 = load ptr, ptr %2, align 8
  %4 = call noundef ptr @_ZNKSt8_Rb_treeIN3nix9StorePathES1_St9_IdentityIS1_ESt4lessIS1_ESaIS1_EE9_M_mbeginEv(ptr noundef nonnull align 8 dereferenceable(48) %3) #1
  ret ptr %4
}

; Function Attrs: mustprogress nounwind uwtable
define linkonce_odr void @_ZNSt8_Rb_treeIN3nix9StorePathES1_St9_IdentityIS1_ESt4lessIS1_ESaIS1_EED2Ev(ptr noundef nonnull align 8 dereferenceable(48) %0) unnamed_addr #2 comdat align 2 personality ptr @__gxx_personality_v0 {
  %2 = alloca ptr, align 8
  store ptr %0, ptr %2, align 8
  %3 = load ptr, ptr %2, align 8
  %4 = call noundef ptr @_ZNSt8_Rb_treeIN3nix9StorePathES1_St9_IdentityIS1_ESt4lessIS1_ESaIS1_EE8_M_beginEv(ptr noundef nonnull align 8 dereferenceable(48) %3) #1
  invoke void @_ZNSt8_Rb_treeIN3nix9StorePathES1_St9_IdentityIS1_ESt4lessIS1_ESaIS1_EE8_M_eraseEPSt13_Rb_tree_nodeIS1_E(ptr noundef nonnull align 8 dereferenceable(48) %3, ptr noundef %4)
          to label %5 unwind label %7

5:                                                ; preds = %1
  %6 = getelementptr inbounds %"class.std::_Rb_tree", ptr %3, i32 0, i32 0
  call void @_ZNSt8_Rb_treeIN3nix9StorePathES1_St9_IdentityIS1_ESt4lessIS1_ESaIS1_EE13_Rb_tree_implIS5_Lb1EED2Ev(ptr noundef nonnull align 8 dereferenceable(48) %6) #1
  ret void

7:                                                ; preds = %1
  %8 = landingpad { ptr, i32 }
          catch ptr null
  %9 = extractvalue { ptr, i32 } %8, 0
  call void @__clang_call_terminate(ptr %9) #20
  unreachable
}

; Function Attrs: mustprogress nounwind uwtable
define linkonce_odr void @_ZNSt3setIN3nix9StorePathESt4lessIS1_ESaIS1_EED2Ev(ptr noundef nonnull align 8 dereferenceable(48) %0) unnamed_addr #2 comdat align 2 {
  %2 = alloca ptr, align 8
  store ptr %0, ptr %2, align 8
  %3 = load ptr, ptr %2, align 8
  %4 = getelementptr inbounds %"class.std::set", ptr %3, i32 0, i32 0
  call void @_ZNSt8_Rb_treeIN3nix9StorePathES1_St9_IdentityIS1_ESt4lessIS1_ESaIS1_EED2Ev(ptr noundef nonnull align 8 dereferenceable(48) %4) #1
  ret void
}

; Function Attrs: mustprogress nounwind uwtable
define internal void @_ZZN3nix5Store12queryMissingERKSt6vectorINS_11DerivedPathESaIS2_EERSt3setINS_9StorePathESt4lessIS8_ESaIS8_EESD_SD_RmSE_EN8DrvStateD2Ev(ptr noundef nonnull align 8 dereferenceable(64) %0) unnamed_addr #2 align 2 {
  %2 = alloca ptr, align 8
  store ptr %0, ptr %2, align 8
  %3 = load ptr, ptr %2, align 8
  %4 = getelementptr inbounds %struct.DrvState, ptr %3, i32 0, i32 2
  call void @_ZNSt3setIN3nix9StorePathESt4lessIS1_ESaIS1_EED2Ev(ptr noundef nonnull align 8 dereferenceable(48) %4) #1
  ret void
}

; Function Attrs: mustprogress nounwind uwtable
define internal void @_ZN3nix4SyncIZNS_5Store12queryMissingERKSt6vectorINS_11DerivedPathESaIS3_EERSt3setINS_9StorePathESt4lessIS9_ESaIS9_EESE_SE_RmSF_E8DrvStateSt5mutexED2Ev(ptr noundef nonnull align 8 dereferenceable(104) %0) unnamed_addr #2 align 2 {
  %2 = alloca ptr, align 8
  store ptr %0, ptr %2, align 8
  %3 = load ptr, ptr %2, align 8
  %4 = getelementptr inbounds %"class.nix::Sync.669", ptr %3, i32 0, i32 1
  call void @_ZZN3nix5Store12queryMissingERKSt6vectorINS_11DerivedPathESaIS2_EERSt3setINS_9StorePathESt4lessIS8_ESaIS8_EESD_SD_RmSE_EN8DrvStateD2Ev(ptr noundef nonnull align 8 dereferenceable(64) %4) #1
  ret void
}

; Function Attrs: mustprogress nounwind uwtable
define internal void @_ZSt10destroy_atIN3nix4SyncIZNS0_5Store12queryMissingERKSt6vectorINS0_11DerivedPathESaIS4_EERSt3setINS0_9StorePathESt4lessISA_ESaISA_EESF_SF_RmSG_E8DrvStateSt5mutexEEEvPT_(ptr noundef %0) #2 {
  %2 = alloca ptr, align 8
  store ptr %0, ptr %2, align 8
  %3 = load ptr, ptr %2, align 8
  call void @_ZN3nix4SyncIZNS_5Store12queryMissingERKSt6vectorINS_11DerivedPathESaIS3_EERSt3setINS_9StorePathESt4lessIS9_ESaIS9_EESE_SE_RmSF_E8DrvStateSt5mutexED2Ev(ptr noundef nonnull align 8 dereferenceable(104) %3) #1
  ret void
}

; Function Attrs: mustprogress nounwind uwtable
define internal noundef ptr @_ZN9__gnu_cxx16__aligned_bufferIN3nix4SyncIZNS1_5Store12queryMissingERKSt6vectorINS1_11DerivedPathESaIS5_EERSt3setINS1_9StorePathESt4lessISB_ESaISB_EESG_SG_RmSH_E8DrvStateSt5mutexEEE7_M_addrEv(ptr noundef nonnull align 8 dereferenceable(104) %0) #2 align 2 {
  %2 = alloca ptr, align 8
  store ptr %0, ptr %2, align 8
  %3 = load ptr, ptr %2, align 8
  %4 = getelementptr inbounds %"struct.__gnu_cxx::__aligned_buffer.666", ptr %3, i32 0, i32 0
  ret ptr %4
}

; Function Attrs: mustprogress uwtable
define internal void @_ZSt8_DestroyIN3nix4SyncIZNS0_5Store12queryMissingERKSt6vectorINS0_11DerivedPathESaIS4_EERSt3setINS0_9StorePathESt4lessISA_ESaISA_EESF_SF_RmSG_E8DrvStateSt5mutexEEEvPT_(ptr noundef %0) #5 {
  %2 = alloca ptr, align 8
  store ptr %0, ptr %2, align 8
  %3 = load ptr, ptr %2, align 8
  call void @_ZSt10destroy_atIN3nix4SyncIZNS0_5Store12queryMissingERKSt6vectorINS0_11DerivedPathESaIS4_EERSt3setINS0_9StorePathESt4lessISA_ESaISA_EESF_SF_RmSG_E8DrvStateSt5mutexEEEvPT_(ptr noundef %3)
  ret void
}

; Function Attrs: mustprogress nounwind uwtable
define internal noundef ptr @_ZN9__gnu_cxx16__aligned_bufferIN3nix4SyncIZNS1_5Store12queryMissingERKSt6vectorINS1_11DerivedPathESaIS5_EERSt3setINS1_9StorePathESt4lessISB_ESaISB_EESG_SG_RmSH_E8DrvStateSt5mutexEEE6_M_ptrEv(ptr noundef nonnull align 8 dereferenceable(104) %0) #2 align 2 {
  %2 = alloca ptr, align 8
  store ptr %0, ptr %2, align 8
  %3 = load ptr, ptr %2, align 8
  %4 = call noundef ptr @_ZN9__gnu_cxx16__aligned_bufferIN3nix4SyncIZNS1_5Store12queryMissingERKSt6vectorINS1_11DerivedPathESaIS5_EERSt3setINS1_9StorePathESt4lessISB_ESaISB_EESG_SG_RmSH_E8DrvStateSt5mutexEEE7_M_addrEv(ptr noundef nonnull align 8 dereferenceable(104) %3) #1
  ret ptr %4
}

; Function Attrs: mustprogress nounwind uwtable
define linkonce_odr noundef nonnull align 1 dereferenceable(1) ptr @_ZNSt14_Sp_ebo_helperILi0ESaIvELb1EE6_S_getERS1_(ptr noundef nonnull align 1 dereferenceable(1) %0) #2 comdat align 2 {
  %2 = alloca ptr, align 8
  store ptr %0, ptr %2, align 8
  %3 = load ptr, ptr %2, align 8
  ret ptr %3
}

; Function Attrs: mustprogress nounwind uwtable
define internal void @_ZNSt16allocator_traitsISaIvEE7destroyIN3nix4SyncIZNS3_5Store12queryMissingERKSt6vectorINS3_11DerivedPathESaIS7_EERSt3setINS3_9StorePathESt4lessISD_ESaISD_EESI_SI_RmSJ_E8DrvStateSt5mutexEEEEvRS0_PT_(ptr noundef nonnull align 1 dereferenceable(1) %0, ptr noundef %1) #2 align 2 personality ptr @__gxx_personality_v0 {
  %3 = alloca ptr, align 8
  %4 = alloca ptr, align 8
  store ptr %0, ptr %3, align 8
  store ptr %1, ptr %4, align 8
  %5 = load ptr, ptr %4, align 8
  invoke void @_ZSt8_DestroyIN3nix4SyncIZNS0_5Store12queryMissingERKSt6vectorINS0_11DerivedPathESaIS4_EERSt3setINS0_9StorePathESt4lessISA_ESaISA_EESF_SF_RmSG_E8DrvStateSt5mutexEEEvPT_(ptr noundef %5)
          to label %6 unwind label %7

6:                                                ; preds = %2
  ret void

7:                                                ; preds = %2
  %8 = landingpad { ptr, i32 }
          catch ptr null
  %9 = extractvalue { ptr, i32 } %8, 0
  call void @__clang_call_terminate(ptr %9) #20
  unreachable
}

; Function Attrs: mustprogress nounwind uwtable
define internal noundef ptr @_ZNSt23_Sp_counted_ptr_inplaceIN3nix4SyncIZNS0_5Store12queryMissingERKSt6vectorINS0_11DerivedPathESaIS4_EERSt3setINS0_9StorePathESt4lessISA_ESaISA_EESF_SF_RmSG_E8DrvStateSt5mutexEESaIvELN9__gnu_cxx12_Lock_policyE2EE6_M_ptrEv(ptr noundef nonnull align 8 dereferenceable(120) %0) #2 align 2 {
  %2 = alloca ptr, align 8
  store ptr %0, ptr %2, align 8
  %3 = load ptr, ptr %2, align 8
  %4 = getelementptr inbounds %"class.std::_Sp_counted_ptr_inplace.665", ptr %3, i32 0, i32 1
  %5 = getelementptr inbounds %"class.std::_Sp_counted_ptr_inplace<nix::Sync<DrvState>, std::allocator<void>, __gnu_cxx::_S_atomic>::_Impl", ptr %4, i32 0, i32 0
  %6 = call noundef ptr @_ZN9__gnu_cxx16__aligned_bufferIN3nix4SyncIZNS1_5Store12queryMissingERKSt6vectorINS1_11DerivedPathESaIS5_EERSt3setINS1_9StorePathESt4lessISB_ESaISB_EESG_SG_RmSH_E8DrvStateSt5mutexEEE6_M_ptrEv(ptr noundef nonnull align 8 dereferenceable(104) %5) #1
  ret ptr %6
}

; Function Attrs: mustprogress nounwind uwtable
define internal noundef nonnull align 1 dereferenceable(1) ptr @_ZNSt23_Sp_counted_ptr_inplaceIN3nix4SyncIZNS0_5Store12queryMissingERKSt6vectorINS0_11DerivedPathESaIS4_EERSt3setINS0_9StorePathESt4lessISA_ESaISA_EESF_SF_RmSG_E8DrvStateSt5mutexEESaIvELN9__gnu_cxx12_Lock_policyE2EE5_Impl8_M_allocEv(ptr noundef nonnull align 8 dereferenceable(104) %0) #2 align 2 {
  %2 = alloca ptr, align 8
  store ptr %0, ptr %2, align 8
  %3 = load ptr, ptr %2, align 8
  %4 = call noundef nonnull align 1 dereferenceable(1) ptr @_ZNSt14_Sp_ebo_helperILi0ESaIvELb1EE6_S_getERS1_(ptr noundef nonnull align 1 dereferenceable(1) %3)
  ret ptr %4
}

; Function Attrs: mustprogress nounwind uwtable
define internal void @_ZNSt23_Sp_counted_ptr_inplaceIN3nix4SyncIZNS0_5Store12queryMissingERKSt6vectorINS0_11DerivedPathESaIS4_EERSt3setINS0_9StorePathESt4lessISA_ESaISA_EESF_SF_RmSG_E8DrvStateSt5mutexEESaIvELN9__gnu_cxx12_Lock_policyE2EE10_M_disposeEv(ptr noundef nonnull align 8 dereferenceable(120) %0) unnamed_addr #2 align 2 {
  %2 = alloca ptr, align 8
  store ptr %0, ptr %2, align 8
  %3 = load ptr, ptr %2, align 8
  %4 = getelementptr inbounds %"class.std::_Sp_counted_ptr_inplace.665", ptr %3, i32 0, i32 1
  %5 = call noundef nonnull align 1 dereferenceable(1) ptr @_ZNSt23_Sp_counted_ptr_inplaceIN3nix4SyncIZNS0_5Store12queryMissingERKSt6vectorINS0_11DerivedPathESaIS4_EERSt3setINS0_9StorePathESt4lessISA_ESaISA_EESF_SF_RmSG_E8DrvStateSt5mutexEESaIvELN9__gnu_cxx12_Lock_policyE2EE5_Impl8_M_allocEv(ptr noundef nonnull align 8 dereferenceable(104) %4) #1
  %6 = call noundef ptr @_ZNSt23_Sp_counted_ptr_inplaceIN3nix4SyncIZNS0_5Store12queryMissingERKSt6vectorINS0_11DerivedPathESaIS4_EERSt3setINS0_9StorePathESt4lessISA_ESaISA_EESF_SF_RmSG_E8DrvStateSt5mutexEESaIvELN9__gnu_cxx12_Lock_policyE2EE6_M_ptrEv(ptr noundef nonnull align 8 dereferenceable(120) %3) #1
  call void @_ZNSt16allocator_traitsISaIvEE7destroyIN3nix4SyncIZNS3_5Store12queryMissingERKSt6vectorINS3_11DerivedPathESaIS7_EERSt3setINS3_9StorePathESt4lessISD_ESaISD_EESI_SI_RmSJ_E8DrvStateSt5mutexEEEEvRS0_PT_(ptr noundef nonnull align 1 dereferenceable(1) %5, ptr noundef %6) #1
  ret void
}