; Function Attrs: mustprogress nounwind uwtable
define internal void @_ZNSt23_Sp_counted_ptr_inplaceIN3nix4SyncIZNS0_5Store12queryMissingERKSt6vectorINS0_11DerivedPathESaIS4_EERSt3setINS0_9StorePathESt4lessISA_ESaISA_EESF_SF_RmSG_E8DrvStateSt5mutexEESaIvELN9__gnu_cxx12_Lock_policyE2EE10_M_disposeEv(ptr noundef nonnull align 8 dereferenceable(120) %0) unnamed_addr #6 align 2 personality ptr @__gxx_personality_v0 {
  %2 = getelementptr inbounds i8, ptr %0, i64 72
  %3 = getelementptr inbounds i8, ptr %0, i64 88
  %4 = load ptr, ptr %3, align 8
  invoke void @_ZNSt8_Rb_treeIN3nix9StorePathES1_St9_IdentityIS1_ESt4lessIS1_ESaIS1_EE8_M_eraseEPSt13_Rb_tree_nodeIS1_E(ptr noundef nonnull align 8 dereferenceable(48) %2, ptr noundef %4)
          to label %_ZNSt16allocator_traitsISaIvEE7destroyIN3nix4SyncIZNS3_5Store12queryMissingERKSt6vectorINS3_11DerivedPathESaIS7_EERSt3setINS3_9StorePathESt4lessISD_ESaISD_EESI_SI_RmSJ_E8DrvStateSt5mutexEEEEvRS0_PT_.exit unwind label %5

5:                                                ; preds = %1
  %6 = landingpad { ptr, i32 }
          catch ptr null
  %7 = extractvalue { ptr, i32 } %6, 0
  tail call void @__clang_call_terminate(ptr %7) #33
  unreachable

_ZNSt16allocator_traitsISaIvEE7destroyIN3nix4SyncIZNS3_5Store12queryMissingERKSt6vectorINS3_11DerivedPathESaIS7_EERSt3setINS3_9StorePathESt4lessISD_ESaISD_EESI_SI_RmSJ_E8DrvStateSt5mutexEEEEvRS0_PT_.exit: ; preds = %1
  ret void
}